; Function Attrs: mustprogress uwtable
define noundef ptr @_ZN18OpenImageIO_v2_6_025sgi_output_imageio_createEv() local_unnamed_addr #5 personality ptr @__gxx_personality_v0 {
entry:
  %call = tail call noundef ptr @_ZN18OpenImageIO_v2_6_011ImageOutputnwEm(i64 noundef 272)
  invoke void @_ZN18OpenImageIO_v2_6_011ImageOutputC2Ev(ptr noundef nonnull align 8 dereferenceable(184) %call)
          to label %invoke.cont unwind label %lpad

invoke.cont:                                      ; preds = %entry
  store ptr getelementptr inbounds ({ [22 x ptr] }, ptr @_ZTVN18OpenImageIO_v2_6_09SgiOutputE, i64 0, i32 0, i64 2), ptr %call, align 8
  %m_filename.i = getelementptr inbounds i8, ptr %call, i64 184
  tail call void @_ZNSt7__cxx1112basic_stringIcSt11char_traitsIcESaIcEEC1Ev(ptr noundef nonnull align 8 dereferenceable(32) %m_filename.i) #21
  %m_scratch.i = getelementptr inbounds i8, ptr %call, i64 216
  tail call void @llvm.memset.p0.i64(ptr noundef nonnull align 8 dereferenceable(24) %m_scratch.i, i8 0, i64 24, i1 false)
  %m_tilebuffer.i = getelementptr inbounds i8, ptr %call, i64 248
  tail call void @llvm.memset.p0.i64(ptr noundef nonnull align 8 dereferenceable(24) %m_tilebuffer.i, i8 0, i64 24, i1 false)
  ret ptr %call

lpad:                                             ; preds = %entry
  %0 = landingpad { ptr, i32 }
          cleanup
  tail call void @_ZN18OpenImageIO_v2_6_011ImageOutputdlEPv(ptr noundef %call) #21
  resume { ptr, i32 } %0
}